; Function Attrs: nounwind uwtable
define ptr @Abc_NtkFindCi(ptr noundef readonly captures(none) %0, ptr noundef %1) local_unnamed_addr #0 {
  %3 = getelementptr inbounds nuw i8, ptr %0, i64 24
  %4 = load ptr, ptr %3, align 8, !tbaa !45
  %5 = tail call i32 @Nm_ManFindIdByName(ptr noundef %4, ptr noundef %1, i32 noundef 2) #10
  %6 = icmp sgt i32 %5, -1
  br i1 %6, label %.sink.split, label %7

7:                                                ; preds = %2
  %8 = load ptr, ptr %3, align 8, !tbaa !45
  %9 = tail call i32 @Nm_ManFindIdByName(ptr noundef %8, ptr noundef %1, i32 noundef 5) #10
  %10 = icmp sgt i32 %9, -1
  br i1 %10, label %.sink.split, label %16

.sink.split:                                      ; preds = %7, %2
  %.sink = phi i32 [ %5, %2 ], [ %9, %7 ]
  %11 = getelementptr i8, ptr %0, i64 32
  %.val = load ptr, ptr %11, align 8, !tbaa !31
  %12 = getelementptr i8, ptr %.val, i64 8
  %.val.val = load ptr, ptr %12, align 8, !tbaa !35
  %13 = zext nneg i32 %.sink to i64
  %14 = getelementptr inbounds nuw ptr, ptr %.val.val, i64 %13
  %15 = load ptr, ptr %14, align 8, !tbaa !36
  br label %16

16:                                               ; preds = %.sink.split, %7
  %.0 = phi ptr [ null, %7 ], [ %15, %.sink.split ]
  ret ptr %.0
}